target datalayout = "e-m:e-p270:32:32-p271:32:32-p272:64:64-i64:64-i128:128-f80:128-n8:16:32:64-S128"
target triple = "x86_64-pc-linux-gnu"

%struct.e_in6_addr = type { [16 x i8] }
%struct.dns_server_data = type { ptr, i32, i32 }
%struct.ares_addr_port_node = type { ptr, i32, %union.anon.2, i32, i32 }
%union.anon.2 = type { %struct.in_addr, [12 x i8] }
%struct.in_addr = type { i32 }

@use_custom_dns_server_list = hidden global i8 0, align 1
@dnsserverlist_uats = internal global ptr null, align 8
@ndnsservers = internal global i32 0, align 4
@async_dns_initialized = internal global i8 0, align 1
@ghba_chan = internal global ptr null, align 8
@ghbn_chan = internal global ptr null, align 8

; Function Attrs: alwaysinline nounwind
define internal ptr @memset.inline(ptr %0, i32 %1, i64 %2) #8 {
  %4 = alloca ptr, align 8
  %5 = alloca i32, align 4
  %6 = alloca i64, align 8
  store ptr %0, ptr %4, align 8
  store i32 %1, ptr %5, align 4
  store i64 %2, ptr %6, align 8
  %7 = load ptr, ptr %4, align 8
  %8 = load i32, ptr %5, align 4
  %9 = load i64, ptr %6, align 8
  %10 = load ptr, ptr %4, align 8
  %11 = call i64 @llvm.objectsize.i64.p0(ptr %10, i1 false, i1 true, i1 true)
  %12 = call ptr @__memset_chk(ptr noundef %7, i32 noundef %8, i64 noundef %9, i64 noundef %11) #16
  ret ptr %12
}

; Function Attrs: alwaysinline nounwind
define internal ptr @memcpy.inline(ptr noalias %0, ptr noalias %1, i64 %2) #8 {
  %4 = alloca ptr, align 8
  %5 = alloca ptr, align 8
  %6 = alloca i64, align 8
  store ptr %0, ptr %4, align 8
  store ptr %1, ptr %5, align 8
  store i64 %2, ptr %6, align 8
  %7 = load ptr, ptr %4, align 8
  %8 = load ptr, ptr %5, align 8
  %9 = load i64, ptr %6, align 8
  %10 = load ptr, ptr %4, align 8
  %11 = call i64 @llvm.objectsize.i64.p0(ptr %10, i1 false, i1 true, i1 true)
  %12 = call ptr @__memcpy_chk(ptr noundef %7, ptr noundef %8, i64 noundef %9, i64 noundef %11) #16
  ret ptr %12
}

; Function Attrs: null_pointer_is_valid sspstrong uwtable
define internal void @c_ares_set_dns_servers() #3 {
  %1 = alloca ptr, align 8
  %2 = alloca i32, align 4
  %3 = alloca %struct.e_in6_addr, align 1
  %4 = alloca i8, align 1
  %5 = alloca ptr, align 8
  %6 = alloca i32, align 4
  %7 = load i8, ptr @async_dns_initialized, align 1, !range !8, !noundef !9
  %8 = trunc i8 %7 to i1
  br i1 %8, label %9, label %12

9:                                                ; preds = %0
  %10 = load i8, ptr @use_custom_dns_server_list, align 1, !range !8, !noundef !9
  %11 = trunc i8 %10 to i1
  br i1 %11, label %13, label %12

12:                                               ; preds = %9, %0
  br label %169

13:                                               ; preds = %9
  %14 = load i32, ptr @ndnsservers, align 4
  %15 = icmp eq i32 %14, 0
  br i1 %15, label %16, label %21

16:                                               ; preds = %13
  %17 = load ptr, ptr @ghba_chan, align 8
  %18 = call i32 @ares_set_servers_ports(ptr noundef %17, ptr noundef null)
  %19 = load ptr, ptr @ghbn_chan, align 8
  %20 = call i32 @ares_set_servers_ports(ptr noundef %19, ptr noundef null)
  br label %169

21:                                               ; preds = %13
  call void @llvm.lifetime.start.p0(i64 8, ptr %1) #16
  %22 = load i32, ptr @ndnsservers, align 4
  %23 = icmp ule i32 %22, 0
  br i1 %23, label %29, label %24

24:                                               ; preds = %21
  %25 = load i32, ptr @ndnsservers, align 4
  %26 = zext i32 %25 to i64
  %27 = udiv i64 9223372036854775807, %26
  %28 = icmp ugt i64 40, %27
  br i1 %28, label %29, label %30

29:                                               ; preds = %24, %21
  br label %34

30:                                               ; preds = %24
  %31 = load i32, ptr @ndnsservers, align 4
  %32 = zext i32 %31 to i64
  %33 = mul i64 40, %32
  br label %34

34:                                               ; preds = %30, %29
  %35 = phi i64 [ 0, %29 ], [ %33, %30 ]
  %36 = call noalias ptr @wmem_alloc(ptr noundef null, i64 noundef %35) #19
  store ptr %36, ptr %1, align 8
  call void @llvm.lifetime.start.p0(i64 4, ptr %2) #16
  call void @llvm.lifetime.start.p0(i64 16, ptr %3) #16
  call void @llvm.lifetime.start.p0(i64 1, ptr %4) #16
  store i8 0, ptr %4, align 1
  call void @llvm.lifetime.start.p0(i64 8, ptr %5) #16
  call void @llvm.lifetime.start.p0(i64 4, ptr %6) #16
  store i32 0, ptr %6, align 4
  %37 = load ptr, ptr %1, align 8
  store ptr %37, ptr %5, align 8
  br label %38

38:                                               ; preds = %99, %34
  %39 = load i32, ptr %6, align 4
  %40 = load i32, ptr @ndnsservers, align 4
  %41 = sub i32 %40, 1
  %42 = icmp ult i32 %39, %41
  br i1 %42, label %43, label %104

43:                                               ; preds = %38
  %44 = load ptr, ptr @dnsserverlist_uats, align 8
  %45 = load i32, ptr %6, align 4
  %46 = zext i32 %45 to i64
  %47 = getelementptr %struct.dns_server_data, ptr %44, i64 %46
  %48 = getelementptr inbounds nuw %struct.dns_server_data, ptr %47, i32 0, i32 0
  %49 = load ptr, ptr %48, align 8
  %50 = call zeroext i1 @ws_inet_pton6(ptr noundef %49, ptr noundef %3)
  br i1 %50, label %51, label %57

51:                                               ; preds = %43
  %52 = load ptr, ptr %5, align 8
  %53 = getelementptr inbounds nuw %struct.ares_addr_port_node, ptr %52, i32 0, i32 1
  store i32 10, ptr %53, align 8
  %54 = load ptr, ptr %5, align 8
  %55 = getelementptr inbounds nuw %struct.ares_addr_port_node, ptr %54, i32 0, i32 2
  %56 = call ptr @memcpy.inline(ptr noundef %55, ptr noundef %3, i64 noundef 16) #16
  br label %78

57:                                               ; preds = %43
  %58 = load ptr, ptr @dnsserverlist_uats, align 8
  %59 = load i32, ptr %6, align 4
  %60 = zext i32 %59 to i64
  %61 = getelementptr %struct.dns_server_data, ptr %58, i64 %60
  %62 = getelementptr inbounds nuw %struct.dns_server_data, ptr %61, i32 0, i32 0
  %63 = load ptr, ptr %62, align 8
  %64 = call zeroext i1 @ws_inet_pton4(ptr noundef %63, ptr noundef %2)
  br i1 %64, label %65, label %71

65:                                               ; preds = %57
  %66 = load ptr, ptr %5, align 8
  %67 = getelementptr inbounds nuw %struct.ares_addr_port_node, ptr %66, i32 0, i32 1
  store i32 2, ptr %67, align 8
  %68 = load ptr, ptr %5, align 8
  %69 = getelementptr inbounds nuw %struct.ares_addr_port_node, ptr %68, i32 0, i32 2
  %70 = call ptr @memcpy.inline(ptr noundef %69, ptr noundef %2, i64 noundef 4) #16
  br label %77

71:                                               ; preds = %57
  store i8 1, ptr %4, align 1
  %72 = load ptr, ptr %5, align 8
  %73 = getelementptr inbounds nuw %struct.ares_addr_port_node, ptr %72, i32 0, i32 1
  store i32 0, ptr %73, align 8
  %74 = load ptr, ptr %5, align 8
  %75 = getelementptr inbounds nuw %struct.ares_addr_port_node, ptr %74, i32 0, i32 2
  %76 = call ptr @memset.inline(ptr noundef %75, i32 noundef 0, i64 noundef 4) #16
  br label %104

77:                                               ; preds = %65
  br label %78

78:                                               ; preds = %77, %51
  %79 = load ptr, ptr @dnsserverlist_uats, align 8
  %80 = load i32, ptr %6, align 4
  %81 = zext i32 %80 to i64
  %82 = getelementptr %struct.dns_server_data, ptr %79, i64 %81
  %83 = getelementptr inbounds nuw %struct.dns_server_data, ptr %82, i32 0, i32 1
  %84 = load i32, ptr %83, align 8
  %85 = load ptr, ptr %5, align 8
  %86 = getelementptr inbounds nuw %struct.ares_addr_port_node, ptr %85, i32 0, i32 3
  store i32 %84, ptr %86, align 4
  %87 = load ptr, ptr @dnsserverlist_uats, align 8
  %88 = load i32, ptr %6, align 4
  %89 = zext i32 %88 to i64
  %90 = getelementptr %struct.dns_server_data, ptr %87, i64 %89
  %91 = getelementptr inbounds nuw %struct.dns_server_data, ptr %90, i32 0, i32 2
  %92 = load i32, ptr %91, align 4
  %93 = load ptr, ptr %5, align 8
  %94 = getelementptr inbounds nuw %struct.ares_addr_port_node, ptr %93, i32 0, i32 4
  store i32 %92, ptr %94, align 8
  %95 = load ptr, ptr %5, align 8
  %96 = getelementptr %struct.ares_addr_port_node, ptr %95, i64 1
  %97 = load ptr, ptr %5, align 8
  %98 = getelementptr inbounds nuw %struct.ares_addr_port_node, ptr %97, i32 0, i32 0
  store ptr %96, ptr %98, align 8
  br label %99

99:                                               ; preds = %78
  %100 = load i32, ptr %6, align 4
  %101 = add i32 %100, 1
  store i32 %101, ptr %6, align 4
  %102 = load ptr, ptr %5, align 8
  %103 = getelementptr %struct.ares_addr_port_node, ptr %102, i32 1
  store ptr %103, ptr %5, align 8
  br label %38, !llvm.loop !18

104:                                              ; preds = %71, %38
  %105 = load i8, ptr %4, align 1, !range !8, !noundef !9
  %106 = trunc i8 %105 to i1
  br i1 %106, label %143, label %107

107:                                              ; preds = %104
  %108 = load ptr, ptr @dnsserverlist_uats, align 8
  %109 = load i32, ptr %6, align 4
  %110 = zext i32 %109 to i64
  %111 = getelementptr %struct.dns_server_data, ptr %108, i64 %110
  %112 = getelementptr inbounds nuw %struct.dns_server_data, ptr %111, i32 0, i32 0
  %113 = load ptr, ptr %112, align 8
  %114 = call zeroext i1 @ws_inet_pton6(ptr noundef %113, ptr noundef %3)
  br i1 %114, label %115, label %121

115:                                              ; preds = %107
  %116 = load ptr, ptr %5, align 8
  %117 = getelementptr inbounds nuw %struct.ares_addr_port_node, ptr %116, i32 0, i32 1
  store i32 10, ptr %117, align 8
  %118 = load ptr, ptr %5, align 8
  %119 = getelementptr inbounds nuw %struct.ares_addr_port_node, ptr %118, i32 0, i32 2
  %120 = call ptr @memcpy.inline(ptr noundef %119, ptr noundef %3, i64 noundef 16) #16
  br label %142

121:                                              ; preds = %107
  %122 = load ptr, ptr @dnsserverlist_uats, align 8
  %123 = load i32, ptr %6, align 4
  %124 = zext i32 %123 to i64
  %125 = getelementptr %struct.dns_server_data, ptr %122, i64 %124
  %126 = getelementptr inbounds nuw %struct.dns_server_data, ptr %125, i32 0, i32 0
  %127 = load ptr, ptr %126, align 8
  %128 = call zeroext i1 @ws_inet_pton4(ptr noundef %127, ptr noundef %2)
  br i1 %128, label %129, label %135

129:                                              ; preds = %121
  %130 = load ptr, ptr %5, align 8
  %131 = getelementptr inbounds nuw %struct.ares_addr_port_node, ptr %130, i32 0, i32 1
  store i32 2, ptr %131, align 8
  %132 = load ptr, ptr %5, align 8
  %133 = getelementptr inbounds nuw %struct.ares_addr_port_node, ptr %132, i32 0, i32 2
  %134 = call ptr @memcpy.inline(ptr noundef %133, ptr noundef %2, i64 noundef 4) #16
  br label %141

135:                                              ; preds = %121
  %136 = load ptr, ptr %5, align 8
  %137 = getelementptr inbounds nuw %struct.ares_addr_port_node, ptr %136, i32 0, i32 1
  store i32 0, ptr %137, align 8
  %138 = load ptr, ptr %5, align 8
  %139 = getelementptr inbounds nuw %struct.ares_addr_port_node, ptr %138, i32 0, i32 2
  %140 = call ptr @memset.inline(ptr noundef %139, i32 noundef 0, i64 noundef 4) #16
  br label %141

141:                                              ; preds = %135, %129
  br label %142

142:                                              ; preds = %141, %115
  br label %143

143:                                              ; preds = %142, %104
  %144 = load ptr, ptr @dnsserverlist_uats, align 8
  %145 = load i32, ptr %6, align 4
  %146 = zext i32 %145 to i64
  %147 = getelementptr %struct.dns_server_data, ptr %144, i64 %146
  %148 = getelementptr inbounds nuw %struct.dns_server_data, ptr %147, i32 0, i32 1
  %149 = load i32, ptr %148, align 8
  %150 = load ptr, ptr %5, align 8
  %151 = getelementptr inbounds nuw %struct.ares_addr_port_node, ptr %150, i32 0, i32 3
  store i32 %149, ptr %151, align 4
  %152 = load ptr, ptr @dnsserverlist_uats, align 8
  %153 = load i32, ptr %6, align 4
  %154 = zext i32 %153 to i64
  %155 = getelementptr %struct.dns_server_data, ptr %152, i64 %154
  %156 = getelementptr inbounds nuw %struct.dns_server_data, ptr %155, i32 0, i32 2
  %157 = load i32, ptr %156, align 4
  %158 = load ptr, ptr %5, align 8
  %159 = getelementptr inbounds nuw %struct.ares_addr_port_node, ptr %158, i32 0, i32 4
  store i32 %157, ptr %159, align 8
  %160 = load ptr, ptr %5, align 8
  %161 = getelementptr inbounds nuw %struct.ares_addr_port_node, ptr %160, i32 0, i32 0
  store ptr null, ptr %161, align 8
  %162 = load ptr, ptr @ghba_chan, align 8
  %163 = load ptr, ptr %1, align 8
  %164 = call i32 @ares_set_servers_ports(ptr noundef %162, ptr noundef %163)
  %165 = load ptr, ptr @ghbn_chan, align 8
  %166 = load ptr, ptr %1, align 8
  %167 = call i32 @ares_set_servers_ports(ptr noundef %165, ptr noundef %166)
  %168 = load ptr, ptr %1, align 8
  call void @wmem_free(ptr noundef null, ptr noundef %168)
  call void @llvm.lifetime.end.p0(i64 4, ptr %6) #16
  call void @llvm.lifetime.end.p0(i64 8, ptr %5) #16
  call void @llvm.lifetime.end.p0(i64 1, ptr %4) #16
  call void @llvm.lifetime.end.p0(i64 16, ptr %3) #16
  call void @llvm.lifetime.end.p0(i64 4, ptr %2) #16
  call void @llvm.lifetime.end.p0(i64 8, ptr %1) #16
  br label %169

169:                                              ; preds = %12, %143, %16
  ret void
}