; Function Attrs: null_pointer_is_valid sspstrong uwtable
define internal void @c_ares_set_dns_servers() #3 {
  %1 = alloca i32, align 4
  %2 = alloca %struct.e_in6_addr, align 1
  %.b37 = load i1, ptr @async_dns_initialized, align 1
  br i1 %.b37, label %3, label %91

3:                                                ; preds = %0
  %4 = load i8, ptr @use_custom_dns_server_list, align 1, !range !16, !noundef !17
  %5 = trunc nuw i8 %4 to i1
  br i1 %5, label %6, label %91

6:                                                ; preds = %3
  %7 = load i32, ptr @ndnsservers, align 4
  %8 = icmp eq i32 %7, 0
  br i1 %8, label %9, label %14

9:                                                ; preds = %6
  %10 = load ptr, ptr @ghba_chan, align 8
  %11 = tail call i32 @ares_set_servers_ports(ptr noundef %10, ptr noundef null)
  %12 = load ptr, ptr @ghbn_chan, align 8
  %13 = tail call i32 @ares_set_servers_ports(ptr noundef %12, ptr noundef null)
  br label %91

14:                                               ; preds = %6
  %15 = zext i32 %7 to i64
  %16 = mul nuw nsw i64 %15, 40
  %17 = tail call noalias ptr @wmem_alloc(ptr noundef null, i64 noundef %16) #26
  call void @llvm.lifetime.start.p0(i64 4, ptr nonnull %1) #24
  call void @llvm.lifetime.start.p0(i64 16, ptr nonnull %2) #24
  %18 = load i32, ptr @ndnsservers, align 4
  %.not = icmp eq i32 %18, 1
  %.pre64 = load ptr, ptr @dnsserverlist_uats, align 8
  br i1 %.not, label %.critedge, label %.lr.ph

.lr.ph:                                           ; preds = %14, %43
  %19 = phi ptr [ %44, %43 ], [ %.pre64, %14 ]
  %indvars.iv = phi i64 [ %indvars.iv.next, %43 ], [ 0, %14 ]
  %.03449 = phi ptr [ %52, %43 ], [ %17, %14 ]
  %20 = phi i64 [ %51, %43 ], [ 0, %14 ]
  %21 = getelementptr %struct.dns_server_data, ptr %19, i64 %indvars.iv
  %22 = load ptr, ptr %21, align 8
  %23 = call zeroext i1 @ws_inet_pton6(ptr noundef %22, ptr noundef nonnull %2)
  br i1 %23, label %24, label %30

24:                                               ; preds = %.lr.ph
  %25 = getelementptr inbounds nuw i8, ptr %.03449, i64 8
  store i32 10, ptr %25, align 8
  %26 = add nuw nsw i64 %20, 12
  %27 = getelementptr inbounds nuw i8, ptr %.03449, i64 12
  %28 = call i64 @llvm.usub.sat.i64(i64 %16, i64 %26)
  %29 = call ptr @__memcpy_chk(ptr noundef nonnull %27, ptr noundef nonnull %2, i64 noundef 16, i64 noundef %28) #24, !alias.scope !18
  br label %43

30:                                               ; preds = %.lr.ph
  %31 = load ptr, ptr @dnsserverlist_uats, align 8
  %32 = getelementptr %struct.dns_server_data, ptr %31, i64 %indvars.iv
  %33 = load ptr, ptr %32, align 8
  %34 = call zeroext i1 @ws_inet_pton4(ptr noundef %33, ptr noundef nonnull %1)
  %35 = getelementptr inbounds nuw i8, ptr %.03449, i64 8
  %36 = add nuw i64 %20, 12
  %37 = getelementptr inbounds nuw i8, ptr %.03449, i64 12
  %38 = call i64 @llvm.usub.sat.i64(i64 %16, i64 %36)
  br i1 %34, label %39, label %41

39:                                               ; preds = %30
  store i32 2, ptr %35, align 8
  %40 = call ptr @__memcpy_chk(ptr noundef nonnull %37, ptr noundef nonnull %1, i64 noundef 4, i64 noundef %38) #24, !alias.scope !22
  br label %43

41:                                               ; preds = %30
  store i32 0, ptr %35, align 8
  %42 = call ptr @__memset_chk(ptr noundef nonnull %37, i32 noundef 0, i64 noundef 4, i64 noundef %38) #24
  br label %79

43:                                               ; preds = %39, %24
  %44 = load ptr, ptr @dnsserverlist_uats, align 8
  %45 = getelementptr %struct.dns_server_data, ptr %44, i64 %indvars.iv, i32 1
  %46 = load i32, ptr %45, align 8
  %47 = getelementptr inbounds nuw i8, ptr %.03449, i64 28
  store i32 %46, ptr %47, align 4
  %48 = getelementptr %struct.dns_server_data, ptr %44, i64 %indvars.iv, i32 2
  %49 = load i32, ptr %48, align 4
  %50 = getelementptr inbounds nuw i8, ptr %.03449, i64 32
  store i32 %49, ptr %50, align 8
  %51 = add nuw nsw i64 %20, 40
  %52 = getelementptr i8, ptr %.03449, i64 40
  store ptr %52, ptr %.03449, align 8
  %indvars.iv.next = add nuw nsw i64 %indvars.iv, 1
  %53 = load i32, ptr @ndnsservers, align 4
  %54 = add i32 %53, -1
  %55 = zext i32 %54 to i64
  %56 = icmp samesign ult i64 %indvars.iv.next, %55
  br i1 %56, label %.lr.ph, label %.critedge.loopexit, !llvm.loop !26

.critedge.loopexit:                               ; preds = %43
  %57 = add nuw i64 %20, 52
  br label %.critedge

.critedge:                                        ; preds = %.critedge.loopexit, %14
  %58 = phi ptr [ %.pre64, %14 ], [ %44, %.critedge.loopexit ]
  %.lcssa47 = phi i64 [ 12, %14 ], [ %57, %.critedge.loopexit ]
  %.034.lcssa = phi ptr [ %17, %14 ], [ %52, %.critedge.loopexit ]
  %.0.lcssa = phi i64 [ 0, %14 ], [ %indvars.iv.next, %.critedge.loopexit ]
  %59 = getelementptr %struct.dns_server_data, ptr %58, i64 %.0.lcssa
  %60 = load ptr, ptr %59, align 8
  %61 = call zeroext i1 @ws_inet_pton6(ptr noundef %60, ptr noundef nonnull %2)
  br i1 %61, label %62, label %67

62:                                               ; preds = %.critedge
  %63 = getelementptr inbounds nuw i8, ptr %.034.lcssa, i64 8
  store i32 10, ptr %63, align 8
  %64 = getelementptr inbounds nuw i8, ptr %.034.lcssa, i64 12
  %65 = call i64 @llvm.usub.sat.i64(i64 %16, i64 %.lcssa47)
  %66 = call ptr @__memcpy_chk(ptr noundef nonnull %64, ptr noundef nonnull %2, i64 noundef 16, i64 noundef %65) #24, !alias.scope !27
  br label %79

67:                                               ; preds = %.critedge
  %68 = load ptr, ptr @dnsserverlist_uats, align 8
  %69 = getelementptr %struct.dns_server_data, ptr %68, i64 %.0.lcssa
  %70 = load ptr, ptr %69, align 8
  %71 = call zeroext i1 @ws_inet_pton4(ptr noundef %70, ptr noundef nonnull %1)
  %72 = getelementptr inbounds nuw i8, ptr %.034.lcssa, i64 8
  %73 = getelementptr inbounds nuw i8, ptr %.034.lcssa, i64 12
  %74 = call i64 @llvm.usub.sat.i64(i64 %16, i64 %.lcssa47)
  br i1 %71, label %75, label %77

75:                                               ; preds = %67
  store i32 2, ptr %72, align 8
  %76 = call ptr @__memcpy_chk(ptr noundef nonnull %73, ptr noundef nonnull %1, i64 noundef 4, i64 noundef %74) #24, !alias.scope !31
  br label %79

77:                                               ; preds = %67
  store i32 0, ptr %72, align 8
  %78 = call ptr @__memset_chk(ptr noundef nonnull %73, i32 noundef 0, i64 noundef 4, i64 noundef %74) #24
  br label %79

79:                                               ; preds = %41, %62, %77, %75
  %.pre-phi = phi i64 [ %indvars.iv, %41 ], [ %.0.lcssa, %62 ], [ %.0.lcssa, %77 ], [ %.0.lcssa, %75 ]
  %.03441 = phi ptr [ %.03449, %41 ], [ %.034.lcssa, %62 ], [ %.034.lcssa, %77 ], [ %.034.lcssa, %75 ]
  %80 = load ptr, ptr @dnsserverlist_uats, align 8
  %81 = getelementptr %struct.dns_server_data, ptr %80, i64 %.pre-phi, i32 1
  %82 = load i32, ptr %81, align 8
  %83 = getelementptr inbounds nuw i8, ptr %.03441, i64 28
  store i32 %82, ptr %83, align 4
  %84 = getelementptr %struct.dns_server_data, ptr %80, i64 %.pre-phi, i32 2
  %85 = load i32, ptr %84, align 4
  %86 = getelementptr inbounds nuw i8, ptr %.03441, i64 32
  store i32 %85, ptr %86, align 8
  store ptr null, ptr %.03441, align 8
  %87 = load ptr, ptr @ghba_chan, align 8
  %88 = call i32 @ares_set_servers_ports(ptr noundef %87, ptr noundef %17)
  %89 = load ptr, ptr @ghbn_chan, align 8
  %90 = call i32 @ares_set_servers_ports(ptr noundef %89, ptr noundef %17)
  call void @wmem_free(ptr noundef null, ptr noundef %17)
  call void @llvm.lifetime.end.p0(i64 16, ptr nonnull %2) #24
  call void @llvm.lifetime.end.p0(i64 4, ptr nonnull %1) #24
  br label %91

91:                                               ; preds = %0, %3, %79, %9
  ret void
}